target datalayout = "e-m:e-p270:32:32-p271:32:32-p272:64:64-i64:64-i128:128-f80:128-n8:16:32:64-S128"
target triple = "x86_64-unknown-linux-gnu"

%"class.absl::ScopedMockLog" = type <{ %"class.testing::internal::FunctionMocker", %"class.testing::internal::FunctionMocker.5", %"class.testing::internal::FunctionMocker.6", %"class.absl::ScopedMockLog::ForwardingSink", i8, %"struct.std::atomic", [6 x i8] }>
%"class.testing::internal::FunctionMocker" = type { %"class.testing::internal::UntypedFunctionMockerBase" }
%"class.testing::internal::UntypedFunctionMockerBase" = type { ptr, ptr, ptr, %"class.std::vector", %"class.std::vector.0" }
%"class.std::vector" = type { %"struct.std::_Vector_base" }
%"struct.std::_Vector_base" = type { %"struct.std::_Vector_base<const void *, std::allocator<const void *>>::_Vector_impl" }
%"struct.std::_Vector_base<const void *, std::allocator<const void *>>::_Vector_impl" = type { %"struct.std::_Vector_base<const void *, std::allocator<const void *>>::_Vector_impl_data" }
%"struct.std::_Vector_base<const void *, std::allocator<const void *>>::_Vector_impl_data" = type { ptr, ptr, ptr }
%"class.std::vector.0" = type { %"struct.std::_Vector_base.1" }
%"struct.std::_Vector_base.1" = type { %"struct.std::_Vector_base<std::shared_ptr<testing::internal::ExpectationBase>, std::allocator<std::shared_ptr<testing::internal::ExpectationBase>>>::_Vector_impl" }
%"struct.std::_Vector_base<std::shared_ptr<testing::internal::ExpectationBase>, std::allocator<std::shared_ptr<testing::internal::ExpectationBase>>>::_Vector_impl" = type { %"struct.std::_Vector_base<std::shared_ptr<testing::internal::ExpectationBase>, std::allocator<std::shared_ptr<testing::internal::ExpectationBase>>>::_Vector_impl_data" }
%"struct.std::_Vector_base<std::shared_ptr<testing::internal::ExpectationBase>, std::allocator<std::shared_ptr<testing::internal::ExpectationBase>>>::_Vector_impl_data" = type { ptr, ptr, ptr }
%"class.testing::internal::FunctionMocker.5" = type { %"class.testing::internal::UntypedFunctionMockerBase" }
%"class.testing::internal::FunctionMocker.6" = type { %"class.testing::internal::UntypedFunctionMockerBase" }
%"class.absl::ScopedMockLog::ForwardingSink" = type { %"class.absl::LogSink", ptr }
%"class.absl::LogSink" = type { ptr }
%"struct.std::atomic" = type { %"struct.std::__atomic_base" }
%"struct.std::__atomic_base" = type { i8 }

@.str = private unnamed_addr constant [127 x i8] c"generated/home/dtcxzyw/WorkSpace/Projects/compilers/llvm-opt-benchmark/bench/abseil-cpp/abseil-cpp/absl/log/scoped_mock_log.cc\00", align 1
@.str.5 = private unnamed_addr constant [20 x i8] c"Check %s failed: %s\00", align 1
@.str.8 = private unnamed_addr constant [20 x i8] c"!is_capturing_logs_\00", align 1
@.str.9 = private unnamed_addr constant [99 x i8] c"StartCapturingLogs() can be called only when the absl::ScopedMockLog object is not capturing logs.\00", align 1

; Function Attrs: mustprogress nounwind uwtable
define linkonce_odr dso_local noundef i32 @_ZStanSt12memory_orderSt23__memory_order_modifier(i32 noundef %__m, i32 noundef %__mod) #5 comdat {
entry:
  %__m.addr = alloca i32, align 4
  %__mod.addr = alloca i32, align 4
  store i32 %__m, ptr %__m.addr, align 4
  store i32 %__mod, ptr %__mod.addr, align 4
  %0 = load i32, ptr %__m.addr, align 4
  %1 = load i32, ptr %__mod.addr, align 4
  %and = and i32 %0, %1
  ret i32 %and
}

; Function Attrs: mustprogress uwtable
define linkonce_odr dso_local void @_ZN4absl10AddLogSinkEPNS_7LogSinkE(ptr noundef %sink) #4 comdat {
entry:
  %sink.addr = alloca ptr, align 8
  store ptr %sink, ptr %sink.addr, align 8
  %0 = load ptr, ptr %sink.addr, align 8
  call void @_ZN4absl12log_internal10AddLogSinkEPNS_7LogSinkE(ptr noundef %0)
  ret void
}

; Function Attrs: mustprogress nounwind uwtable
define linkonce_odr dso_local void @_ZNSt6atomicIbE5storeEbSt12memory_order(ptr noundef nonnull align 1 dereferenceable(1) %this, i1 noundef zeroext %__i, i32 noundef %__m) #5 comdat align 2 {
entry:
  %this.addr.i = alloca ptr, align 8
  %__i.addr.i = alloca i8, align 1
  %__m.addr.i = alloca i32, align 4
  %__b.i = alloca i32, align 4
  %.atomictmp.i = alloca i8, align 1
  %this.addr = alloca ptr, align 8
  %__i.addr = alloca i8, align 1
  %__m.addr = alloca i32, align 4
  store ptr %this, ptr %this.addr, align 8
  %frombool = zext i1 %__i to i8
  store i8 %frombool, ptr %__i.addr, align 1
  store i32 %__m, ptr %__m.addr, align 4
  %this1 = load ptr, ptr %this.addr, align 8
  %_M_base = getelementptr inbounds %"struct.std::atomic", ptr %this1, i32 0, i32 0
  %0 = load i8, ptr %__i.addr, align 1
  %tobool = trunc i8 %0 to i1
  %1 = load i32, ptr %__m.addr, align 4
  store ptr %_M_base, ptr %this.addr.i, align 8
  %frombool.i = zext i1 %tobool to i8
  store i8 %frombool.i, ptr %__i.addr.i, align 1
  store i32 %1, ptr %__m.addr.i, align 4
  %this1.i = load ptr, ptr %this.addr.i, align 8
  %2 = load i32, ptr %__m.addr.i, align 4
  %call.i = call noundef i32 @_ZStanSt12memory_orderSt23__memory_order_modifier(i32 noundef %2, i32 noundef 65535)
  store i32 %call.i, ptr %__b.i, align 4
  %3 = load i32, ptr %__m.addr.i, align 4
  %4 = load i8, ptr %__i.addr.i, align 1
  %tobool.i = trunc i8 %4 to i1
  %frombool8.i = zext i1 %tobool.i to i8
  store i8 %frombool8.i, ptr %.atomictmp.i, align 1
  switch i32 %3, label %monotonic.i [
    i32 3, label %release.i
    i32 5, label %seqcst.i
  ]

monotonic.i:                                      ; preds = %entry
  %5 = load i8, ptr %.atomictmp.i, align 1
  store atomic i8 %5, ptr %this1.i monotonic, align 1
  br label %_ZNSt13__atomic_baseIbE5storeEbSt12memory_order.exit

release.i:                                        ; preds = %entry
  %6 = load i8, ptr %.atomictmp.i, align 1
  store atomic i8 %6, ptr %this1.i release, align 1
  br label %_ZNSt13__atomic_baseIbE5storeEbSt12memory_order.exit

seqcst.i:                                         ; preds = %entry
  %7 = load i8, ptr %.atomictmp.i, align 1
  store atomic i8 %7, ptr %this1.i seq_cst, align 1
  br label %_ZNSt13__atomic_baseIbE5storeEbSt12memory_order.exit

_ZNSt13__atomic_baseIbE5storeEbSt12memory_order.exit: ; preds = %seqcst.i, %release.i, %monotonic.i
  ret void
}

; Function Attrs: mustprogress uwtable
define dso_local void @_ZN4absl13ScopedMockLog18StartCapturingLogsEv(ptr noundef nonnull align 8 dereferenceable(240) %this) #4 align 2 {
entry:
  %this.addr = alloca ptr, align 8
  %absl_raw_log_internal_basename = alloca ptr, align 8
  store ptr %this, ptr %this.addr, align 8
  %this1 = load ptr, ptr %this.addr, align 8
  br label %do.body

do.body:                                          ; preds = %entry
  %is_capturing_logs_ = getelementptr inbounds %"class.absl::ScopedMockLog", ptr %this1, i32 0, i32 4
  %0 = load i8, ptr %is_capturing_logs_, align 8
  %tobool = trunc i8 %0 to i1
  %lnot = xor i1 %tobool, true
  %lnot2 = xor i1 %lnot, true
  br i1 %lnot2, label %if.then, label %if.end

if.then:                                          ; preds = %do.body
  br label %do.body3

do.body3:                                         ; preds = %if.then
  store ptr getelementptr (i8, ptr @.str, i64 108), ptr %absl_raw_log_internal_basename, align 8
  call void (i32, ptr, i32, ptr, ...) @_ZN4absl16raw_log_internal6RawLogENS_11LogSeverityEPKciS3_z(i32 noundef 3, ptr noundef getelementptr (i8, ptr @.str, i64 108), i32 noundef 64, ptr noundef @.str.5, ptr noundef @.str.8, ptr noundef @.str.9)
  br label %do.body4

do.body4:                                         ; preds = %do.body3
  unreachable

do.end:                                           ; No predecessors!
  br label %do.end5

do.end5:                                          ; preds = %do.end
  br label %if.end

if.end:                                           ; preds = %do.end5, %do.body
  br label %do.end6

do.end6:                                          ; preds = %if.end
  %is_capturing_logs_7 = getelementptr inbounds %"class.absl::ScopedMockLog", ptr %this1, i32 0, i32 4
  store i8 1, ptr %is_capturing_logs_7, align 8
  %is_triggered_ = getelementptr inbounds %"class.absl::ScopedMockLog", ptr %this1, i32 0, i32 5
  call void @_ZNSt6atomicIbE5storeEbSt12memory_order(ptr noundef nonnull align 1 dereferenceable(1) %is_triggered_, i1 noundef zeroext true, i32 noundef 0) #3
  %sink_ = getelementptr inbounds %"class.absl::ScopedMockLog", ptr %this1, i32 0, i32 3
  call void @_ZN4absl10AddLogSinkEPNS_7LogSinkE(ptr noundef %sink_)
  ret void
}