; Function Attrs: mustprogress uwtable
define dso_local void @_ZN4absl13ScopedMockLog18StartCapturingLogsEv(ptr noundef nonnull align 8 dereferenceable(240) %this) local_unnamed_addr #3 align 2 {
entry:
  %is_capturing_logs_ = getelementptr inbounds i8, ptr %this, i64 232
  %0 = load i8, ptr %is_capturing_logs_, align 8
  %1 = and i8 %0, 1
  %tobool.not = icmp eq i8 %1, 0
  br i1 %tobool.not, label %do.end6, label %do.body3

do.body3:                                         ; preds = %entry
  tail call void (i32, ptr, i32, ptr, ...) @_ZN4absl16raw_log_internal6RawLogENS_11LogSeverityEPKciS3_z(i32 noundef 3, ptr noundef nonnull getelementptr inbounds ([127 x i8], ptr @.str, i64 0, i64 108), i32 noundef 64, ptr noundef nonnull @.str.5, ptr noundef nonnull @.str.8, ptr noundef nonnull @.str.9)
  unreachable

do.end6:                                          ; preds = %entry
  store i8 1, ptr %is_capturing_logs_, align 8
  %is_triggered_ = getelementptr inbounds i8, ptr %this, i64 233
  store atomic i8 1, ptr %is_triggered_ monotonic, align 1
  %sink_ = getelementptr inbounds i8, ptr %this, i64 216
  tail call void @_ZN4absl12log_internal10AddLogSinkEPNS_7LogSinkE(ptr noundef nonnull %sink_)
  ret void
}